; ModuleID = 'source-C-CXX/25/535.cpp'
source_filename = "source-C-CXX/25/535.cpp"
target datalayout = "e-m:e-p270:32:32-p271:32:32-p272:64:64-i64:64-f80:128-n8:16:32:64-S128"
target triple = "x86_64-pc-linux-gnu"

%"class.std::ios_base::Init" = type { i8 }
%"class.std::basic_istream" = type { i32 (...)**, i64, %"class.std::basic_ios" }
%"class.std::basic_ios" = type { %"class.std::ios_base", %"class.std::basic_ostream"*, i8, i8, %"class.std::basic_streambuf"*, %"class.std::ctype"*, %"class.std::num_put"*, %"class.std::num_get"* }
%"class.std::ios_base" = type { i32 (...)**, i64, i64, i32, i32, i32, %"struct.std::ios_base::_Callback_list"*, %"struct.std::ios_base::_Words", [8 x %"struct.std::ios_base::_Words"], i32, %"struct.std::ios_base::_Words"*, %"class.std::locale" }
%"struct.std::ios_base::_Callback_list" = type { %"struct.std::ios_base::_Callback_list"*, void (i32, %"class.std::ios_base"*, i32)*, i32, i32 }
%"struct.std::ios_base::_Words" = type { i8*, i64 }
%"class.std::locale" = type { %"class.std::locale::_Impl"* }
%"class.std::locale::_Impl" = type { i32, %"class.std::locale::facet"**, i64, %"class.std::locale::facet"**, i8** }
%"class.std::locale::facet" = type <{ i32 (...)**, i32, [4 x i8] }>
%"class.std::basic_ostream" = type { i32 (...)**, %"class.std::basic_ios" }
%"class.std::basic_streambuf" = type { i32 (...)**, i8*, i8*, i8*, i8*, i8*, i8*, %"class.std::locale" }
%"class.std::ctype" = type <{ %"class.std::locale::facet.base", [4 x i8], %struct.__locale_struct*, i8, [7 x i8], i32*, i32*, i16*, i8, [256 x i8], [256 x i8], i8, [6 x i8] }>
%"class.std::locale::facet.base" = type <{ i32 (...)**, i32 }>
%struct.__locale_struct = type { [13 x %struct.__locale_data*], i16*, i32*, i32*, [13 x i8*] }
%struct.__locale_data = type opaque
%"class.std::num_put" = type { %"class.std::locale::facet.base", [4 x i8] }
%"class.std::num_get" = type { %"class.std::locale::facet.base", [4 x i8] }

@_ZStL8__ioinit = internal global %"class.std::ios_base::Init" zeroinitializer, align 1
@__dso_handle = external hidden global i8
@_ZSt3cin = external global %"class.std::basic_istream", align 8
@_ZSt4cout = external global %"class.std::basic_ostream", align 8
@llvm.global_ctors = appending global [1 x { i32, void ()*, i8* }] [{ i32, void ()*, i8* } { i32 65535, void ()* @_GLOBAL__sub_I_535.cpp, i8* null }]

declare void @_ZNSt8ios_base4InitC1Ev(%"class.std::ios_base::Init"* nonnull align 1 dereferenceable(1)) unnamed_addr #0

; Function Attrs: nounwind
declare void @_ZNSt8ios_base4InitD1Ev(%"class.std::ios_base::Init"* nonnull align 1 dereferenceable(1)) unnamed_addr #1

; Function Attrs: nofree nounwind
declare i32 @__cxa_atexit(void (i8*)*, i8*, i8*) local_unnamed_addr #2

; Function Attrs: mustprogress norecurse sspstrong uwtable
define dso_local i32 @main() local_unnamed_addr #3 {
  %1 = alloca [100 x i8], align 16
  %2 = getelementptr inbounds [100 x i8], [100 x i8]* %1, i64 0, i64 0
  call void @llvm.lifetime.start.p0i8(i64 100, i8* nonnull %2) #8
  %3 = call nonnull align 8 dereferenceable(16) %"class.std::basic_istream"* @_ZNSi3getEPclc(%"class.std::basic_istream"* nonnull align 8 dereferenceable(16) @_ZSt3cin, i8* nonnull %2, i64 100, i8 signext 10)
  %4 = call i64 @strlen(i8* noundef nonnull %2) #9
  %5 = trunc i64 %4 to i32
  %6 = icmp sgt i32 %5, 0
  br i1 %6, label %7, label %128

7:                                                ; preds = %0, %123
  %8 = phi i32 [ %125, %123 ], [ %5, %0 ]
  %9 = phi i32 [ %126, %123 ], [ 0, %0 ]
  %10 = sext i32 %9 to i64
  %11 = getelementptr inbounds [100 x i8], [100 x i8]* %1, i64 0, i64 %10
  %12 = load i8, i8* %11, align 1, !tbaa !5
  %13 = icmp eq i8 %12, 32
  br i1 %13, label %14, label %123

14:                                               ; preds = %7
  %15 = add nsw i32 %9, -1
  %16 = sext i32 %15 to i64
  %17 = getelementptr inbounds [100 x i8], [100 x i8]* %1, i64 0, i64 %16
  %18 = load i8, i8* %17, align 1, !tbaa !5
  %19 = icmp eq i8 %18, 32
  br i1 %19, label %20, label %123

20:                                               ; preds = %14
  %21 = add nsw i32 %8, -1
  %22 = icmp slt i32 %9, %21
  %23 = sext i32 %21 to i64
  br i1 %22, label %24, label %114

24:                                               ; preds = %20
  %25 = sub nsw i64 %23, %10
  %26 = icmp ult i64 %25, 8
  br i1 %26, label %112, label %27

27:                                               ; preds = %24
  %28 = icmp ult i64 %25, 32
  br i1 %28, label %91, label %29

29:                                               ; preds = %27
  %30 = and i64 %25, -32
  %31 = add nsw i64 %30, -32
  %32 = lshr exact i64 %31, 5
  %33 = add nuw nsw i64 %32, 1
  %34 = and i64 %33, 1
  %35 = icmp eq i64 %31, 0
  br i1 %35, label %69, label %36

36:                                               ; preds = %29
  %37 = and i64 %33, 1152921504606846974
  br label %38

38:                                               ; preds = %38, %36
  %39 = phi i64 [ 0, %36 ], [ %66, %38 ]
  %40 = phi i64 [ %37, %36 ], [ %67, %38 ]
  %41 = add i64 %39, %10
  %42 = add nsw i64 %41, 1
  %43 = getelementptr inbounds [100 x i8], [100 x i8]* %1, i64 0, i64 %42
  %44 = bitcast i8* %43 to <16 x i8>*
  %45 = load <16 x i8>, <16 x i8>* %44, align 1, !tbaa !5
  %46 = getelementptr inbounds i8, i8* %43, i64 16
  %47 = bitcast i8* %46 to <16 x i8>*
  %48 = load <16 x i8>, <16 x i8>* %47, align 1, !tbaa !5
  %49 = getelementptr inbounds [100 x i8], [100 x i8]* %1, i64 0, i64 %41
  %50 = bitcast i8* %49 to <16 x i8>*
  store <16 x i8> %45, <16 x i8>* %50, align 1, !tbaa !5
  %51 = getelementptr inbounds i8, i8* %49, i64 16
  %52 = bitcast i8* %51 to <16 x i8>*
  store <16 x i8> %48, <16 x i8>* %52, align 1, !tbaa !5
  %53 = or i64 %39, 32
  %54 = add i64 %53, %10
  %55 = add nsw i64 %54, 1
  %56 = getelementptr inbounds [100 x i8], [100 x i8]* %1, i64 0, i64 %55
  %57 = bitcast i8* %56 to <16 x i8>*
  %58 = load <16 x i8>, <16 x i8>* %57, align 1, !tbaa !5
  %59 = getelementptr inbounds i8, i8* %56, i64 16
  %60 = bitcast i8* %59 to <16 x i8>*
  %61 = load <16 x i8>, <16 x i8>* %60, align 1, !tbaa !5
  %62 = getelementptr inbounds [100 x i8], [100 x i8]* %1, i64 0, i64 %54
  %63 = bitcast i8* %62 to <16 x i8>*
  store <16 x i8> %58, <16 x i8>* %63, align 1, !tbaa !5
  %64 = getelementptr inbounds i8, i8* %62, i64 16
  %65 = bitcast i8* %64 to <16 x i8>*
  store <16 x i8> %61, <16 x i8>* %65, align 1, !tbaa !5
  %66 = add nuw i64 %39, 64
  %67 = add i64 %40, -2
  %68 = icmp eq i64 %67, 0
  br i1 %68, label %69, label %38, !llvm.loop !8

69:                                               ; preds = %38, %29
  %70 = phi i64 [ 0, %29 ], [ %66, %38 ]
  %71 = icmp eq i64 %34, 0
  br i1 %71, label %85, label %72

72:                                               ; preds = %69
  %73 = add i64 %70, %10
  %74 = add nsw i64 %73, 1
  %75 = getelementptr inbounds [100 x i8], [100 x i8]* %1, i64 0, i64 %74
  %76 = bitcast i8* %75 to <16 x i8>*
  %77 = load <16 x i8>, <16 x i8>* %76, align 1, !tbaa !5
  %78 = getelementptr inbounds i8, i8* %75, i64 16
  %79 = bitcast i8* %78 to <16 x i8>*
  %80 = load <16 x i8>, <16 x i8>* %79, align 1, !tbaa !5
  %81 = getelementptr inbounds [100 x i8], [100 x i8]* %1, i64 0, i64 %73
  %82 = bitcast i8* %81 to <16 x i8>*
  store <16 x i8> %77, <16 x i8>* %82, align 1, !tbaa !5
  %83 = getelementptr inbounds i8, i8* %81, i64 16
  %84 = bitcast i8* %83 to <16 x i8>*
  store <16 x i8> %80, <16 x i8>* %84, align 1, !tbaa !5
  br label %85

85:                                               ; preds = %69, %72
  %86 = icmp eq i64 %25, %30
  br i1 %86, label %114, label %87

87:                                               ; preds = %85
  %88 = add nsw i64 %30, %10
  %89 = and i64 %25, 24
  %90 = icmp eq i64 %89, 0
  br i1 %90, label %112, label %91

91:                                               ; preds = %27, %87
  %92 = phi i64 [ %30, %87 ], [ 0, %27 ]
  %93 = add i32 %8, -1
  %94 = sext i32 %93 to i64
  %95 = sext i32 %9 to i64
  %96 = sub nsw i64 %94, %95
  %97 = and i64 %96, -8
  %98 = add nsw i64 %97, %10
  br label %99

99:                                               ; preds = %99, %91
  %100 = phi i64 [ %92, %91 ], [ %108, %99 ]
  %101 = add i64 %100, %10
  %102 = add nsw i64 %101, 1
  %103 = getelementptr inbounds [100 x i8], [100 x i8]* %1, i64 0, i64 %102
  %104 = bitcast i8* %103 to <8 x i8>*
  %105 = load <8 x i8>, <8 x i8>* %104, align 1, !tbaa !5
  %106 = getelementptr inbounds [100 x i8], [100 x i8]* %1, i64 0, i64 %101
  %107 = bitcast i8* %106 to <8 x i8>*
  store <8 x i8> %105, <8 x i8>* %107, align 1, !tbaa !5
  %108 = add nuw i64 %100, 8
  %109 = icmp eq i64 %108, %97
  br i1 %109, label %110, label %99, !llvm.loop !11

110:                                              ; preds = %99
  %111 = icmp eq i64 %96, %97
  br i1 %111, label %114, label %112

112:                                              ; preds = %24, %87, %110
  %113 = phi i64 [ %10, %24 ], [ %88, %87 ], [ %98, %110 ]
  br label %116

114:                                              ; preds = %116, %85, %110, %20
  %115 = getelementptr inbounds [100 x i8], [100 x i8]* %1, i64 0, i64 %23
  store i8 0, i8* %115, align 1, !tbaa !5
  br label %123

116:                                              ; preds = %112, %116
  %117 = phi i64 [ %118, %116 ], [ %113, %112 ]
  %118 = add nsw i64 %117, 1
  %119 = getelementptr inbounds [100 x i8], [100 x i8]* %1, i64 0, i64 %118
  %120 = load i8, i8* %119, align 1, !tbaa !5
  %121 = getelementptr inbounds [100 x i8], [100 x i8]* %1, i64 0, i64 %117
  store i8 %120, i8* %121, align 1, !tbaa !5
  %122 = icmp eq i64 %118, %23
  br i1 %122, label %114, label %116, !llvm.loop !12

123:                                              ; preds = %14, %114, %7
  %124 = phi i32 [ %15, %114 ], [ %9, %14 ], [ %9, %7 ]
  %125 = phi i32 [ %21, %114 ], [ %8, %14 ], [ %8, %7 ]
  %126 = add nsw i32 %124, 1
  %127 = icmp slt i32 %126, %125
  br i1 %127, label %7, label %128, !llvm.loop !14

128:                                              ; preds = %123, %0
  %129 = call i64 @strlen(i8* noundef nonnull dereferenceable(1) %2) #8
  %130 = call nonnull align 8 dereferenceable(8) %"class.std::basic_ostream"* @_ZSt16__ostream_insertIcSt11char_traitsIcEERSt13basic_ostreamIT_T0_ES6_PKS3_l(%"class.std::basic_ostream"* nonnull align 8 dereferenceable(8) @_ZSt4cout, i8* nonnull %2, i64 %129)
  %131 = load i8*, i8** bitcast (%"class.std::basic_ostream"* @_ZSt4cout to i8**), align 8, !tbaa !15
  %132 = getelementptr i8, i8* %131, i64 -24
  %133 = bitcast i8* %132 to i64*
  %134 = load i64, i64* %133, align 8
  %135 = add nsw i64 %134, 240
  %136 = getelementptr inbounds i8, i8* bitcast (%"class.std::basic_ostream"* @_ZSt4cout to i8*), i64 %135
  %137 = bitcast i8* %136 to %"class.std::ctype"**
  %138 = load %"class.std::ctype"*, %"class.std::ctype"** %137, align 8, !tbaa !17
  %139 = icmp eq %"class.std::ctype"* %138, null
  br i1 %139, label %140, label %141

140:                                              ; preds = %128
  call void @_ZSt16__throw_bad_castv() #10
  unreachable

141:                                              ; preds = %128
  %142 = getelementptr inbounds %"class.std::ctype", %"class.std::ctype"* %138, i64 0, i32 8
  %143 = load i8, i8* %142, align 8, !tbaa !21
  %144 = icmp eq i8 %143, 0
  br i1 %144, label %148, label %145

145:                                              ; preds = %141
  %146 = getelementptr inbounds %"class.std::ctype", %"class.std::ctype"* %138, i64 0, i32 9, i64 10
  %147 = load i8, i8* %146, align 1, !tbaa !5
  br label %154

148:                                              ; preds = %141
  call void @_ZNKSt5ctypeIcE13_M_widen_initEv(%"class.std::ctype"* nonnull align 8 dereferenceable(570) %138)
  %149 = bitcast %"class.std::ctype"* %138 to i8 (%"class.std::ctype"*, i8)***
  %150 = load i8 (%"class.std::ctype"*, i8)**, i8 (%"class.std::ctype"*, i8)*** %149, align 8, !tbaa !15
  %151 = getelementptr inbounds i8 (%"class.std::ctype"*, i8)*, i8 (%"class.std::ctype"*, i8)** %150, i64 6
  %152 = load i8 (%"class.std::ctype"*, i8)*, i8 (%"class.std::ctype"*, i8)** %151, align 8
  %153 = call signext i8 %152(%"class.std::ctype"* nonnull align 8 dereferenceable(570) %138, i8 signext 10)
  br label %154

154:                                              ; preds = %145, %148
  %155 = phi i8 [ %147, %145 ], [ %153, %148 ]
  %156 = call nonnull align 8 dereferenceable(8) %"class.std::basic_ostream"* @_ZNSo3putEc(%"class.std::basic_ostream"* nonnull align 8 dereferenceable(8) @_ZSt4cout, i8 signext %155)
  %157 = call nonnull align 8 dereferenceable(8) %"class.std::basic_ostream"* @_ZNSo5flushEv(%"class.std::basic_ostream"* nonnull align 8 dereferenceable(8) %156)
  call void @llvm.lifetime.end.p0i8(i64 100, i8* nonnull %2) #8
  ret i32 0
}

; Function Attrs: argmemonly mustprogress nofree nosync nounwind willreturn
declare void @llvm.lifetime.start.p0i8(i64 immarg, i8* nocapture) #4

declare nonnull align 8 dereferenceable(16) %"class.std::basic_istream"* @_ZNSi3getEPclc(%"class.std::basic_istream"* nonnull align 8 dereferenceable(16), i8*, i64, i8 signext) local_unnamed_addr #0

; Function Attrs: argmemonly mustprogress nofree nounwind readonly willreturn
declare i64 @strlen(i8* nocapture) local_unnamed_addr #5

; Function Attrs: argmemonly mustprogress nofree nosync nounwind willreturn
declare void @llvm.lifetime.end.p0i8(i64 immarg, i8* nocapture) #4

declare nonnull align 8 dereferenceable(8) %"class.std::basic_ostream"* @_ZSt16__ostream_insertIcSt11char_traitsIcEERSt13basic_ostreamIT_T0_ES6_PKS3_l(%"class.std::basic_ostream"* nonnull align 8 dereferenceable(8), i8*, i64) local_unnamed_addr #0

declare nonnull align 8 dereferenceable(8) %"class.std::basic_ostream"* @_ZNSo3putEc(%"class.std::basic_ostream"* nonnull align 8 dereferenceable(8), i8 signext) local_unnamed_addr #0

declare nonnull align 8 dereferenceable(8) %"class.std::basic_ostream"* @_ZNSo5flushEv(%"class.std::basic_ostream"* nonnull align 8 dereferenceable(8)) local_unnamed_addr #0

; Function Attrs: noreturn
declare void @_ZSt16__throw_bad_castv() local_unnamed_addr #6

declare void @_ZNKSt5ctypeIcE13_M_widen_initEv(%"class.std::ctype"* nonnull align 8 dereferenceable(570)) local_unnamed_addr #0

; Function Attrs: sspstrong uwtable
define internal void @_GLOBAL__sub_I_535.cpp() #7 section ".text.startup" {
  tail call void @_ZNSt8ios_base4InitC1Ev(%"class.std::ios_base::Init"* nonnull align 1 dereferenceable(1) @_ZStL8__ioinit)
  %1 = tail call i32 @__cxa_atexit(void (i8*)* bitcast (void (%"class.std::ios_base::Init"*)* @_ZNSt8ios_base4InitD1Ev to void (i8*)*), i8* getelementptr inbounds (%"class.std::ios_base::Init", %"class.std::ios_base::Init"* @_ZStL8__ioinit, i64 0, i32 0), i8* nonnull @__dso_handle) #8
  ret void
}


!llvm.module.flags = !{!0, !1, !2, !3}
!llvm.ident = !{!4}

!0 = !{i32 1, !"wchar_size", i32 4}
!1 = !{i32 7, !"PIC Level", i32 2}
!2 = !{i32 7, !"PIE Level", i32 2}
!3 = !{i32 7, !"uwtable", i32 1}
!4 = !{!"clang version 13.0.0"}
!5 = !{!6, !6, i64 0}
!6 = !{!"omnipotent char", !7, i64 0}
!7 = !{!"Simple C++ TBAA"}
!8 = distinct !{!8, !9, !10}
!9 = !{!"llvm.loop.mustprogress"}
!10 = !{!"llvm.loop.isvectorized", i32 1}
!11 = distinct !{!11, !9, !10}
!12 = distinct !{!12, !9, !13, !10}
!13 = !{!"llvm.loop.unroll.runtime.disable"}
!14 = distinct !{!14, !9}
!15 = !{!16, !16, i64 0}
!16 = !{!"vtable pointer", !7, i64 0}
!17 = !{!18, !19, i64 240}
!18 = !{!"_ZTSSt9basic_iosIcSt11char_traitsIcEE", !19, i64 216, !6, i64 224, !20, i64 225, !19, i64 232, !19, i64 240, !19, i64 248, !19, i64 256}
!19 = !{!"any pointer", !6, i64 0}
!20 = !{!"bool", !6, i64 0}
!21 = !{!22, !6, i64 56}
!22 = !{!"_ZTSSt5ctypeIcE", !19, i64 16, !20, i64 24, !19, i64 32, !19, i64 40, !19, i64 48, !6, i64 56, !6, i64 57, !6, i64 313, !6, i64 569}
